target datalayout = "e-m:e-p270:32:32-p271:32:32-p272:64:64-i64:64-i128:128-f80:128-n8:16:32:64-S128"
target triple = "x86_64-pc-linux-gnu"

@.str = private unnamed_addr constant [2 x i8] c"p\00", align 1
@.str.132 = private unnamed_addr constant [2 x i8] c"t\00", align 1
@.str.624 = private unnamed_addr constant [2 x i8] c"a\00", align 1
@.str.625 = private unnamed_addr constant [7 x i8] c"append\00", align 1
@.str.626 = private unnamed_addr constant [2 x i8] c"c\00", align 1
@.str.627 = private unnamed_addr constant [7 x i8] c"custom\00", align 1
@.str.628 = private unnamed_addr constant [2 x i8] c"d\00", align 1
@.str.629 = private unnamed_addr constant [10 x i8] c"directory\00", align 1
@.str.630 = private unnamed_addr constant [6 x i8] c"plain\00", align 1
@.str.631 = private unnamed_addr constant [4 x i8] c"tar\00", align 1
@.str.632 = private unnamed_addr constant [37 x i8] c"invalid output format \22%s\22 specified\00", align 1

; Function Attrs: nounwind uwtable
define internal i32 @parseArchiveFormat(ptr noundef %0, ptr noundef %1) #0 {
  %3 = alloca ptr, align 8
  %4 = alloca ptr, align 8
  %5 = alloca i32, align 4
  store ptr %0, ptr %3, align 8
  store ptr %1, ptr %4, align 8
  call void @llvm.lifetime.start.p0(i64 4, ptr %5) #10
  %6 = load ptr, ptr %4, align 8
  store i32 1, ptr %6, align 4
  %7 = load ptr, ptr %3, align 8
  %8 = call i32 @pg_strcasecmp(ptr noundef %7, ptr noundef @.str.624)
  %9 = icmp eq i32 %8, 0
  br i1 %9, label %14, label %10

10:                                               ; preds = %2
  %11 = load ptr, ptr %3, align 8
  %12 = call i32 @pg_strcasecmp(ptr noundef %11, ptr noundef @.str.625)
  %13 = icmp eq i32 %12, 0
  br i1 %13, label %14, label %16

14:                                               ; preds = %10, %2
  store i32 4, ptr %5, align 4
  %15 = load ptr, ptr %4, align 8
  store i32 0, ptr %15, align 4
  br label %69

16:                                               ; preds = %10
  %17 = load ptr, ptr %3, align 8
  %18 = call i32 @pg_strcasecmp(ptr noundef %17, ptr noundef @.str.626)
  %19 = icmp eq i32 %18, 0
  br i1 %19, label %20, label %21

20:                                               ; preds = %16
  store i32 1, ptr %5, align 4
  br label %68

21:                                               ; preds = %16
  %22 = load ptr, ptr %3, align 8
  %23 = call i32 @pg_strcasecmp(ptr noundef %22, ptr noundef @.str.627)
  %24 = icmp eq i32 %23, 0
  br i1 %24, label %25, label %26

25:                                               ; preds = %21
  store i32 1, ptr %5, align 4
  br label %67

26:                                               ; preds = %21
  %27 = load ptr, ptr %3, align 8
  %28 = call i32 @pg_strcasecmp(ptr noundef %27, ptr noundef @.str.628)
  %29 = icmp eq i32 %28, 0
  br i1 %29, label %30, label %31

30:                                               ; preds = %26
  store i32 5, ptr %5, align 4
  br label %66

31:                                               ; preds = %26
  %32 = load ptr, ptr %3, align 8
  %33 = call i32 @pg_strcasecmp(ptr noundef %32, ptr noundef @.str.629)
  %34 = icmp eq i32 %33, 0
  br i1 %34, label %35, label %36

35:                                               ; preds = %31
  store i32 5, ptr %5, align 4
  br label %65

36:                                               ; preds = %31
  %37 = load ptr, ptr %3, align 8
  %38 = call i32 @pg_strcasecmp(ptr noundef %37, ptr noundef @.str)
  %39 = icmp eq i32 %38, 0
  br i1 %39, label %40, label %41

40:                                               ; preds = %36
  store i32 4, ptr %5, align 4
  br label %64

41:                                               ; preds = %36
  %42 = load ptr, ptr %3, align 8
  %43 = call i32 @pg_strcasecmp(ptr noundef %42, ptr noundef @.str.630)
  %44 = icmp eq i32 %43, 0
  br i1 %44, label %45, label %46

45:                                               ; preds = %41
  store i32 4, ptr %5, align 4
  br label %63

46:                                               ; preds = %41
  %47 = load ptr, ptr %3, align 8
  %48 = call i32 @pg_strcasecmp(ptr noundef %47, ptr noundef @.str.132)
  %49 = icmp eq i32 %48, 0
  br i1 %49, label %50, label %51

50:                                               ; preds = %46
  store i32 3, ptr %5, align 4
  br label %62

51:                                               ; preds = %46
  %52 = load ptr, ptr %3, align 8
  %53 = call i32 @pg_strcasecmp(ptr noundef %52, ptr noundef @.str.631)
  %54 = icmp eq i32 %53, 0
  br i1 %54, label %55, label %56

55:                                               ; preds = %51
  store i32 3, ptr %5, align 4
  br label %61

56:                                               ; preds = %51
  br label %57

57:                                               ; preds = %56
  %58 = load ptr, ptr %3, align 8
  call void (i32, i32, ptr, ...) @pg_log_generic(i32 noundef 4, i32 noundef 0, ptr noundef @.str.632, ptr noundef %58)
  call void @exit_nicely(i32 noundef 1) #12
  unreachable

59:                                               ; No predecessors!
  br label %60

60:                                               ; preds = %59
  br label %61

61:                                               ; preds = %60, %55
  br label %62

62:                                               ; preds = %61, %50
  br label %63

63:                                               ; preds = %62, %45
  br label %64

64:                                               ; preds = %63, %40
  br label %65

65:                                               ; preds = %64, %35
  br label %66

66:                                               ; preds = %65, %30
  br label %67

67:                                               ; preds = %66, %25
  br label %68

68:                                               ; preds = %67, %20
  br label %69

69:                                               ; preds = %68, %14
  %70 = load i32, ptr %5, align 4
  call void @llvm.lifetime.end.p0(i64 4, ptr %5) #10
  ret i32 %70
}