; Function Attrs: nounwind uwtable
define internal fastcc range(i32 1, 6) i32 @parseArchiveFormat(ptr noundef %0, ptr noundef nonnull writeonly captures(none) initializes((0, 4)) %1) unnamed_addr #5 {
  store i32 1, ptr %1, align 4
  %3 = tail call i32 @pg_strcasecmp(ptr noundef %0, ptr noundef nonnull @.str.624) #14
  %4 = icmp eq i32 %3, 0
  br i1 %4, label %8, label %5

5:                                                ; preds = %2
  %6 = tail call i32 @pg_strcasecmp(ptr noundef %0, ptr noundef nonnull @.str.625) #14
  %7 = icmp eq i32 %6, 0
  br i1 %7, label %8, label %9

8:                                                ; preds = %5, %2
  store i32 0, ptr %1, align 4
  br label %34

9:                                                ; preds = %5
  %10 = tail call i32 @pg_strcasecmp(ptr noundef %0, ptr noundef nonnull @.str.626) #14
  %11 = icmp eq i32 %10, 0
  br i1 %11, label %34, label %12

12:                                               ; preds = %9
  %13 = tail call i32 @pg_strcasecmp(ptr noundef %0, ptr noundef nonnull @.str.627) #14
  %14 = icmp eq i32 %13, 0
  br i1 %14, label %34, label %15

15:                                               ; preds = %12
  %16 = tail call i32 @pg_strcasecmp(ptr noundef %0, ptr noundef nonnull @.str.628) #14
  %17 = icmp eq i32 %16, 0
  br i1 %17, label %34, label %18

18:                                               ; preds = %15
  %19 = tail call i32 @pg_strcasecmp(ptr noundef %0, ptr noundef nonnull @.str.629) #14
  %20 = icmp eq i32 %19, 0
  br i1 %20, label %34, label %21

21:                                               ; preds = %18
  %22 = tail call i32 @pg_strcasecmp(ptr noundef %0, ptr noundef nonnull @.str) #14
  %23 = icmp eq i32 %22, 0
  br i1 %23, label %34, label %24

24:                                               ; preds = %21
  %25 = tail call i32 @pg_strcasecmp(ptr noundef %0, ptr noundef nonnull @.str.630) #14
  %26 = icmp eq i32 %25, 0
  br i1 %26, label %34, label %27

27:                                               ; preds = %24
  %28 = tail call i32 @pg_strcasecmp(ptr noundef %0, ptr noundef nonnull @.str.132) #14
  %29 = icmp eq i32 %28, 0
  br i1 %29, label %34, label %30

30:                                               ; preds = %27
  %31 = tail call i32 @pg_strcasecmp(ptr noundef %0, ptr noundef nonnull @.str.631) #14
  %32 = icmp eq i32 %31, 0
  br i1 %32, label %34, label %33

33:                                               ; preds = %30
  tail call void (i32, i32, ptr, ...) @pg_log_generic(i32 noundef 4, i32 noundef 0, ptr noundef nonnull @.str.632, ptr noundef %0) #14
  tail call void @exit_nicely(i32 noundef 1) #16
  unreachable

34:                                               ; preds = %30, %27, %24, %21, %18, %15, %12, %9, %8
  %.0 = phi i32 [ 4, %8 ], [ 1, %9 ], [ 1, %12 ], [ 5, %15 ], [ 5, %18 ], [ 4, %21 ], [ 4, %24 ], [ 3, %27 ], [ 3, %30 ]
  ret i32 %.0
}